target datalayout = "e-m:e-p270:32:32-p271:32:32-p272:64:64-i64:64-i128:128-f80:128-n8:16:32:64-S128"
target triple = "x86_64-unknown-linux-gnu"

%"class.icu_75::UCharsTrieElement" = type { i32, i32 }
%"class.icu_75::UnicodeString" = type { %"class.icu_75::Replaceable", %"union.icu_75::UnicodeString::StackBufferOrFields" }
%"class.icu_75::Replaceable" = type { %"class.icu_75::UObject" }
%"class.icu_75::UObject" = type { ptr }
%"union.icu_75::UnicodeString::StackBufferOrFields" = type { %struct.anon.0, [32 x i8] }
%struct.anon.0 = type { i16, i32, i32, ptr }
%"class.icu_75::UCharsTrieBuilder" = type { %"class.icu_75::StringTrieBuilder", %"class.icu_75::UnicodeString", ptr, i32, i32, ptr, i32, i32 }
%"class.icu_75::StringTrieBuilder" = type { %"class.icu_75::UObject", ptr }

; Function Attrs: mustprogress nounwind uwtable
define linkonce_odr noundef i32 @_ZNK6icu_7513UnicodeString14getShortLengthEv(ptr noundef nonnull align 8 dereferenceable(64) %this) #1 comdat align 2 {
entry:
  %this.addr = alloca ptr, align 8
  store ptr %this, ptr %this.addr, align 8
  %this1 = load ptr, ptr %this.addr, align 8
  %fUnion = getelementptr inbounds %"class.icu_75::UnicodeString", ptr %this1, i32 0, i32 1
  %fLengthAndFlags = getelementptr inbounds %struct.anon.0, ptr %fUnion, i32 0, i32 0
  %0 = load i16, ptr %fLengthAndFlags, align 8
  %conv = sext i16 %0 to i32
  %shr = ashr i32 %conv, 5
  ret i32 %shr
}

; Function Attrs: mustprogress nounwind uwtable
define linkonce_odr noundef signext i8 @_ZNK6icu_7513UnicodeString14hasShortLengthEv(ptr noundef nonnull align 8 dereferenceable(64) %this) #1 comdat align 2 {
entry:
  %this.addr = alloca ptr, align 8
  store ptr %this, ptr %this.addr, align 8
  %this1 = load ptr, ptr %this.addr, align 8
  %fUnion = getelementptr inbounds %"class.icu_75::UnicodeString", ptr %this1, i32 0, i32 1
  %fLengthAndFlags = getelementptr inbounds %struct.anon.0, ptr %fUnion, i32 0, i32 0
  %0 = load i16, ptr %fLengthAndFlags, align 8
  %conv = sext i16 %0 to i32
  %cmp = icmp sge i32 %conv, 0
  %conv2 = zext i1 %cmp to i8
  ret i8 %conv2
}

; Function Attrs: mustprogress uwtable
define linkonce_odr noundef nonnull align 8 dereferenceable(64) ptr @_ZN6icu_7513UnicodeString6appendERKS0_(ptr noundef nonnull align 8 dereferenceable(64) %this, ptr noundef nonnull align 8 dereferenceable(64) %srcText) #0 comdat align 2 {
entry:
  %this.addr = alloca ptr, align 8
  %srcText.addr = alloca ptr, align 8
  store ptr %this, ptr %this.addr, align 8
  store ptr %srcText, ptr %srcText.addr, align 8
  %this1 = load ptr, ptr %this.addr, align 8
  %0 = load ptr, ptr %srcText.addr, align 8
  %1 = load ptr, ptr %srcText.addr, align 8
  %call = call noundef i32 @_ZNK6icu_7513UnicodeString6lengthEv(ptr noundef nonnull align 8 dereferenceable(64) %1)
  %call2 = call noundef nonnull align 8 dereferenceable(64) ptr @_ZN6icu_7513UnicodeString8doAppendERKS0_ii(ptr noundef nonnull align 8 dereferenceable(64) %this1, ptr noundef nonnull align 8 dereferenceable(64) %0, i32 noundef 0, i32 noundef %call)
  ret ptr %call2
}

; Function Attrs: mustprogress uwtable
define linkonce_odr noundef nonnull align 8 dereferenceable(64) ptr @_ZN6icu_7513UnicodeString6appendEDs(ptr noundef nonnull align 8 dereferenceable(64) %this, i16 noundef zeroext %srcChar) #0 comdat align 2 {
entry:
  %this.addr = alloca ptr, align 8
  %srcChar.addr = alloca i16, align 2
  store ptr %this, ptr %this.addr, align 8
  store i16 %srcChar, ptr %srcChar.addr, align 2
  %this1 = load ptr, ptr %this.addr, align 8
  %call = call noundef nonnull align 8 dereferenceable(64) ptr @_ZN6icu_7513UnicodeString8doAppendEPKDsii(ptr noundef nonnull align 8 dereferenceable(64) %this1, ptr noundef %srcChar.addr, i32 noundef 0, i32 noundef 1)
  ret ptr %call
}

; Function Attrs: mustprogress uwtable
define linkonce_odr noundef i32 @_ZNK6icu_7513UnicodeString6lengthEv(ptr noundef nonnull align 8 dereferenceable(64) %this) #0 comdat align 2 {
entry:
  %this.addr = alloca ptr, align 8
  store ptr %this, ptr %this.addr, align 8
  %this1 = load ptr, ptr %this.addr, align 8
  %call = call noundef signext i8 @_ZNK6icu_7513UnicodeString14hasShortLengthEv(ptr noundef nonnull align 8 dereferenceable(64) %this1)
  %tobool = icmp ne i8 %call, 0
  br i1 %tobool, label %cond.true, label %cond.false

cond.true:                                        ; preds = %entry
  %call2 = call noundef i32 @_ZNK6icu_7513UnicodeString14getShortLengthEv(ptr noundef nonnull align 8 dereferenceable(64) %this1)
  br label %cond.end

cond.false:                                       ; preds = %entry
  %fUnion = getelementptr inbounds %"class.icu_75::UnicodeString", ptr %this1, i32 0, i32 1
  %fLength = getelementptr inbounds %struct.anon.0, ptr %fUnion, i32 0, i32 1
  %0 = load i32, ptr %fLength, align 4
  br label %cond.end

cond.end:                                         ; preds = %cond.false, %cond.true
  %cond = phi i32 [ %call2, %cond.true ], [ %0, %cond.false ]
  ret i32 %cond
}

; Function Attrs: mustprogress nounwind uwtable
define linkonce_odr noundef signext i8 @_ZNK6icu_7513UnicodeString7isBogusEv(ptr noundef nonnull align 8 dereferenceable(64) %this) #1 comdat align 2 {
entry:
  %this.addr = alloca ptr, align 8
  store ptr %this, ptr %this.addr, align 8
  %this1 = load ptr, ptr %this.addr, align 8
  %fUnion = getelementptr inbounds %"class.icu_75::UnicodeString", ptr %this1, i32 0, i32 1
  %fLengthAndFlags = getelementptr inbounds %struct.anon.0, ptr %fUnion, i32 0, i32 0
  %0 = load i16, ptr %fLengthAndFlags, align 8
  %conv = sext i16 %0 to i32
  %and = and i32 %conv, 1
  %conv2 = trunc i32 %and to i8
  ret i8 %conv2
}

; Function Attrs: mustprogress nounwind uwtable
define internal noundef signext i8 @_ZL9U_SUCCESS10UErrorCode(i32 noundef %code) #1 {
entry:
  %code.addr = alloca i32, align 4
  store i32 %code, ptr %code.addr, align 4
  %0 = load i32, ptr %code.addr, align 4
  %cmp = icmp sle i32 %0, 0
  %conv = zext i1 %cmp to i8
  ret i8 %conv
}

; Function Attrs: mustprogress uwtable
define void @_ZN6icu_7517UCharsTrieElement5setToERKNS_13UnicodeStringEiRS1_R10UErrorCode(ptr noundef nonnull align 4 dereferenceable(8) %this, ptr noundef nonnull align 8 dereferenceable(64) %s, i32 noundef %val, ptr noundef nonnull align 8 dereferenceable(64) %strings, ptr noundef nonnull align 4 dereferenceable(4) %errorCode) #0 align 2 {
entry:
  %this.addr = alloca ptr, align 8
  %s.addr = alloca ptr, align 8
  %val.addr = alloca i32, align 4
  %strings.addr = alloca ptr, align 8
  %errorCode.addr = alloca ptr, align 8
  %length = alloca i32, align 4
  store ptr %this, ptr %this.addr, align 8
  store ptr %s, ptr %s.addr, align 8
  store i32 %val, ptr %val.addr, align 4
  store ptr %strings, ptr %strings.addr, align 8
  store ptr %errorCode, ptr %errorCode.addr, align 8
  %this1 = load ptr, ptr %this.addr, align 8
  %0 = load ptr, ptr %errorCode.addr, align 8
  %1 = load i32, ptr %0, align 4
  %call = call noundef signext i8 @_ZL9U_FAILURE10UErrorCode(i32 noundef %1)
  %tobool = icmp ne i8 %call, 0
  br i1 %tobool, label %if.then, label %if.end

if.then:                                          ; preds = %entry
  br label %return

if.end:                                           ; preds = %entry
  %2 = load ptr, ptr %s.addr, align 8
  %call2 = call noundef i32 @_ZNK6icu_7513UnicodeString6lengthEv(ptr noundef nonnull align 8 dereferenceable(64) %2)
  store i32 %call2, ptr %length, align 4
  %3 = load i32, ptr %length, align 4
  %cmp = icmp sgt i32 %3, 65535
  br i1 %cmp, label %if.then3, label %if.end4

if.then3:                                         ; preds = %if.end
  %4 = load ptr, ptr %errorCode.addr, align 8
  store i32 8, ptr %4, align 4
  br label %return

if.end4:                                          ; preds = %if.end
  %5 = load ptr, ptr %strings.addr, align 8
  %call5 = call noundef i32 @_ZNK6icu_7513UnicodeString6lengthEv(ptr noundef nonnull align 8 dereferenceable(64) %5)
  %stringOffset = getelementptr inbounds %"class.icu_75::UCharsTrieElement", ptr %this1, i32 0, i32 0
  store i32 %call5, ptr %stringOffset, align 4
  %6 = load ptr, ptr %strings.addr, align 8
  %7 = load i32, ptr %length, align 4
  %conv = trunc i32 %7 to i16
  %call6 = call noundef nonnull align 8 dereferenceable(64) ptr @_ZN6icu_7513UnicodeString6appendEDs(ptr noundef nonnull align 8 dereferenceable(64) %6, i16 noundef zeroext %conv)
  %8 = load i32, ptr %val.addr, align 4
  %value = getelementptr inbounds %"class.icu_75::UCharsTrieElement", ptr %this1, i32 0, i32 1
  store i32 %8, ptr %value, align 4
  %9 = load ptr, ptr %strings.addr, align 8
  %10 = load ptr, ptr %s.addr, align 8
  %call7 = call noundef nonnull align 8 dereferenceable(64) ptr @_ZN6icu_7513UnicodeString6appendERKS0_(ptr noundef nonnull align 8 dereferenceable(64) %9, ptr noundef nonnull align 8 dereferenceable(64) %10)
  br label %return

return:                                           ; preds = %if.end4, %if.then3, %if.then
  ret void
}

; Function Attrs: mustprogress nounwind uwtable
define internal noundef signext i8 @_ZL9U_FAILURE10UErrorCode(i32 noundef %code) #1 {
entry:
  %code.addr = alloca i32, align 4
  store i32 %code, ptr %code.addr, align 4
  %0 = load i32, ptr %code.addr, align 4
  %cmp = icmp sgt i32 %0, 0
  %conv = zext i1 %cmp to i8
  ret i8 %conv
}

; Function Attrs: mustprogress uwtable
define noundef nonnull align 8 dereferenceable(112) ptr @_ZN6icu_7517UCharsTrieBuilder3addERKNS_13UnicodeStringEiR10UErrorCode(ptr noundef nonnull align 8 dereferenceable(112) %this, ptr noundef nonnull align 8 dereferenceable(64) %s, i32 noundef %value, ptr noundef nonnull align 4 dereferenceable(4) %errorCode) #0 align 2 {
entry:
  %retval = alloca ptr, align 8
  %this.addr = alloca ptr, align 8
  %s.addr = alloca ptr, align 8
  %value.addr = alloca i32, align 4
  %errorCode.addr = alloca ptr, align 8
  %newCapacity = alloca i32, align 4
  %newElements = alloca ptr, align 8
  %saved-rvalue = alloca ptr, align 8
  %saved-rvalue12 = alloca i64, align 8
  %cleanup.cond = alloca i1, align 1
  store ptr %this, ptr %this.addr, align 8
  store ptr %s, ptr %s.addr, align 8
  store i32 %value, ptr %value.addr, align 4
  store ptr %errorCode, ptr %errorCode.addr, align 8
  %this1 = load ptr, ptr %this.addr, align 8
  %0 = load ptr, ptr %errorCode.addr, align 8
  %1 = load i32, ptr %0, align 4
  %call = call noundef signext i8 @_ZL9U_FAILURE10UErrorCode(i32 noundef %1)
  %tobool = icmp ne i8 %call, 0
  br i1 %tobool, label %if.then, label %if.end

if.then:                                          ; preds = %entry
  store ptr %this1, ptr %retval, align 8
  br label %return

if.end:                                           ; preds = %entry
  %ucharsLength = getelementptr inbounds %"class.icu_75::UCharsTrieBuilder", ptr %this1, i32 0, i32 7
  %2 = load i32, ptr %ucharsLength, align 4
  %cmp = icmp sgt i32 %2, 0
  br i1 %cmp, label %if.then2, label %if.end3

if.then2:                                         ; preds = %if.end
  %3 = load ptr, ptr %errorCode.addr, align 8
  store i32 30, ptr %3, align 4
  store ptr %this1, ptr %retval, align 8
  br label %return

if.end3:                                          ; preds = %if.end
  %elementsLength = getelementptr inbounds %"class.icu_75::UCharsTrieBuilder", ptr %this1, i32 0, i32 4
  %4 = load i32, ptr %elementsLength, align 4
  %elementsCapacity = getelementptr inbounds %"class.icu_75::UCharsTrieBuilder", ptr %this1, i32 0, i32 3
  %5 = load i32, ptr %elementsCapacity, align 8
  %cmp4 = icmp eq i32 %4, %5
  br i1 %cmp4, label %if.then5, label %if.end26

if.then5:                                         ; preds = %if.end3
  %elementsCapacity6 = getelementptr inbounds %"class.icu_75::UCharsTrieBuilder", ptr %this1, i32 0, i32 3
  %6 = load i32, ptr %elementsCapacity6, align 8
  %cmp7 = icmp eq i32 %6, 0
  br i1 %cmp7, label %if.then8, label %if.else

if.then8:                                         ; preds = %if.then5
  store i32 1024, ptr %newCapacity, align 4
  br label %if.end10

if.else:                                          ; preds = %if.then5
  %elementsCapacity9 = getelementptr inbounds %"class.icu_75::UCharsTrieBuilder", ptr %this1, i32 0, i32 3
  %7 = load i32, ptr %elementsCapacity9, align 8
  %mul = mul nsw i32 4, %7
  store i32 %mul, ptr %newCapacity, align 4
  br label %if.end10

if.end10:                                         ; preds = %if.else, %if.then8
  %8 = load i32, ptr %newCapacity, align 4
  %conv = sext i32 %8 to i64
  %9 = call { i64, i1 } @llvm.umul.with.overflow.i64(i64 %conv, i64 8)
  %10 = extractvalue { i64, i1 } %9, 1
  %11 = extractvalue { i64, i1 } %9, 0
  %12 = select i1 %10, i64 -1, i64 %11
  %call11 = call noundef ptr @_ZN6icu_757UMemorynaEm(i64 noundef %12) #8
  %new.isnull = icmp eq ptr %call11, null
  store i1 false, ptr %cleanup.cond, align 1
  br i1 %new.isnull, label %new.cont, label %new.notnull

new.notnull:                                      ; preds = %if.end10
  store ptr %call11, ptr %saved-rvalue, align 8
  store i64 %12, ptr %saved-rvalue12, align 8
  store i1 true, ptr %cleanup.cond, align 1
  br label %new.cont

new.cont:                                         ; preds = %new.notnull, %if.end10
  %13 = phi ptr [ %call11, %new.notnull ], [ null, %if.end10 ]
  store ptr %13, ptr %newElements, align 8
  %14 = load ptr, ptr %newElements, align 8
  %cmp13 = icmp eq ptr %14, null
  br i1 %cmp13, label %if.then14, label %if.end15

if.then14:                                        ; preds = %new.cont
  %15 = load ptr, ptr %errorCode.addr, align 8
  store i32 7, ptr %15, align 4
  store ptr %this1, ptr %retval, align 8
  br label %return

if.end15:                                         ; preds = %new.cont
  %elementsLength16 = getelementptr inbounds %"class.icu_75::UCharsTrieBuilder", ptr %this1, i32 0, i32 4
  %16 = load i32, ptr %elementsLength16, align 4
  %cmp17 = icmp sgt i32 %16, 0
  br i1 %cmp17, label %if.then18, label %if.end22

if.then18:                                        ; preds = %if.end15
  br label %do.body

do.body:                                          ; preds = %if.then18
  %17 = load ptr, ptr %newElements, align 8
  %elements = getelementptr inbounds %"class.icu_75::UCharsTrieBuilder", ptr %this1, i32 0, i32 2
  %18 = load ptr, ptr %elements, align 8
  %elementsLength19 = getelementptr inbounds %"class.icu_75::UCharsTrieBuilder", ptr %this1, i32 0, i32 4
  %19 = load i32, ptr %elementsLength19, align 4
  %conv20 = sext i32 %19 to i64
  %mul21 = mul i64 %conv20, 8
  call void @llvm.memcpy.p0.p0.i64(ptr align 4 %17, ptr align 4 %18, i64 %mul21, i1 false)
  br label %do.end

do.end:                                           ; preds = %do.body
  br label %if.end22

if.end22:                                         ; preds = %do.end, %if.end15
  %elements23 = getelementptr inbounds %"class.icu_75::UCharsTrieBuilder", ptr %this1, i32 0, i32 2
  %20 = load ptr, ptr %elements23, align 8
  %isnull = icmp eq ptr %20, null
  br i1 %isnull, label %delete.end, label %delete.notnull

delete.notnull:                                   ; preds = %if.end22
  call void @_ZN6icu_757UMemorydaEPv(ptr noundef %20) #8
  br label %delete.end

delete.end:                                       ; preds = %delete.notnull, %if.end22
  %21 = load ptr, ptr %newElements, align 8
  %elements24 = getelementptr inbounds %"class.icu_75::UCharsTrieBuilder", ptr %this1, i32 0, i32 2
  store ptr %21, ptr %elements24, align 8
  %22 = load i32, ptr %newCapacity, align 4
  %elementsCapacity25 = getelementptr inbounds %"class.icu_75::UCharsTrieBuilder", ptr %this1, i32 0, i32 3
  store i32 %22, ptr %elementsCapacity25, align 8
  br label %if.end26

if.end26:                                         ; preds = %delete.end, %if.end3
  %elements27 = getelementptr inbounds %"class.icu_75::UCharsTrieBuilder", ptr %this1, i32 0, i32 2
  %23 = load ptr, ptr %elements27, align 8
  %elementsLength28 = getelementptr inbounds %"class.icu_75::UCharsTrieBuilder", ptr %this1, i32 0, i32 4
  %24 = load i32, ptr %elementsLength28, align 4
  %inc = add nsw i32 %24, 1
  store i32 %inc, ptr %elementsLength28, align 4
  %idxprom = sext i32 %24 to i64
  %arrayidx = getelementptr inbounds %"class.icu_75::UCharsTrieElement", ptr %23, i64 %idxprom
  %25 = load ptr, ptr %s.addr, align 8
  %26 = load i32, ptr %value.addr, align 4
  %strings = getelementptr inbounds %"class.icu_75::UCharsTrieBuilder", ptr %this1, i32 0, i32 1
  %27 = load ptr, ptr %errorCode.addr, align 8
  call void @_ZN6icu_7517UCharsTrieElement5setToERKNS_13UnicodeStringEiRS1_R10UErrorCode(ptr noundef nonnull align 4 dereferenceable(8) %arrayidx, ptr noundef nonnull align 8 dereferenceable(64) %25, i32 noundef %26, ptr noundef nonnull align 8 dereferenceable(64) %strings, ptr noundef nonnull align 4 dereferenceable(4) %27)
  %28 = load ptr, ptr %errorCode.addr, align 8
  %29 = load i32, ptr %28, align 4
  %call29 = call noundef signext i8 @_ZL9U_SUCCESS10UErrorCode(i32 noundef %29)
  %tobool30 = icmp ne i8 %call29, 0
  br i1 %tobool30, label %land.lhs.true, label %if.end35

land.lhs.true:                                    ; preds = %if.end26
  %strings31 = getelementptr inbounds %"class.icu_75::UCharsTrieBuilder", ptr %this1, i32 0, i32 1
  %call32 = call noundef signext i8 @_ZNK6icu_7513UnicodeString7isBogusEv(ptr noundef nonnull align 8 dereferenceable(64) %strings31)
  %tobool33 = icmp ne i8 %call32, 0
  br i1 %tobool33, label %if.then34, label %if.end35

if.then34:                                        ; preds = %land.lhs.true
  %30 = load ptr, ptr %errorCode.addr, align 8
  store i32 7, ptr %30, align 4
  br label %if.end35

if.end35:                                         ; preds = %if.then34, %land.lhs.true, %if.end26
  store ptr %this1, ptr %retval, align 8
  br label %return

return:                                           ; preds = %if.end35, %if.then14, %if.then2, %if.then
  %31 = load ptr, ptr %retval, align 8
  ret ptr %31
}