; Function Attrs: mustprogress uwtable
define noundef nonnull align 8 dereferenceable(112) ptr @_ZN6icu_7517UCharsTrieBuilder3addERKNS_13UnicodeStringEiR10UErrorCode(ptr noundef nonnull returned align 8 dereferenceable(112) %this, ptr noundef nonnull align 8 dereferenceable(64) %s, i32 noundef %value, ptr nocapture noundef nonnull align 4 dereferenceable(4) %errorCode) local_unnamed_addr #0 align 2 {
entry:
  %srcChar.addr.i.i = alloca i16, align 2
  %0 = load i32, ptr %errorCode, align 4
  %cmp.i = icmp slt i32 %0, 1
  br i1 %cmp.i, label %if.end, label %return

if.end:                                           ; preds = %entry
  %ucharsLength = getelementptr inbounds i8, ptr %this, i64 108
  %1 = load i32, ptr %ucharsLength, align 4
  %cmp = icmp sgt i32 %1, 0
  br i1 %cmp, label %return.sink.split, label %if.end3

if.end3:                                          ; preds = %if.end
  %elementsLength = getelementptr inbounds i8, ptr %this, i64 92
  %2 = load i32, ptr %elementsLength, align 4
  %elementsCapacity = getelementptr inbounds i8, ptr %this, i64 88
  %3 = load i32, ptr %elementsCapacity, align 8
  %cmp4 = icmp eq i32 %2, %3
  br i1 %cmp4, label %if.then5, label %if.end3.if.end26_crit_edge

if.end3.if.end26_crit_edge:                       ; preds = %if.end3
  %elements27.phi.trans.insert = getelementptr inbounds i8, ptr %this, i64 80
  %.pre = load ptr, ptr %elements27.phi.trans.insert, align 8
  br label %if.end26

if.then5:                                         ; preds = %if.end3
  %cmp7 = icmp eq i32 %2, 0
  %mul = shl nsw i32 %2, 2
  %newCapacity.0 = select i1 %cmp7, i32 1024, i32 %mul
  %conv = sext i32 %newCapacity.0 to i64
  %4 = icmp slt i32 %newCapacity.0, 0
  %5 = shl nsw i64 %conv, 3
  %6 = select i1 %4, i64 -1, i64 %5
  %call11 = tail call noundef ptr @_ZN6icu_757UMemorynaEm(i64 noundef %6) #11
  %new.isnull = icmp eq ptr %call11, null
  br i1 %new.isnull, label %return.sink.split, label %if.end15

if.end15:                                         ; preds = %if.then5
  %7 = load i32, ptr %elementsLength, align 4
  %cmp17 = icmp sgt i32 %7, 0
  br i1 %cmp17, label %do.body, label %if.end22

do.body:                                          ; preds = %if.end15
  %elements = getelementptr inbounds i8, ptr %this, i64 80
  %8 = load ptr, ptr %elements, align 8
  %conv20 = zext nneg i32 %7 to i64
  %mul21 = shl nuw nsw i64 %conv20, 3
  tail call void @llvm.memcpy.p0.p0.i64(ptr nonnull align 4 %call11, ptr align 4 %8, i64 %mul21, i1 false)
  br label %if.end22

if.end22:                                         ; preds = %do.body, %if.end15
  %elements23 = getelementptr inbounds i8, ptr %this, i64 80
  %9 = load ptr, ptr %elements23, align 8
  %isnull = icmp eq ptr %9, null
  br i1 %isnull, label %delete.end, label %delete.notnull

delete.notnull:                                   ; preds = %if.end22
  tail call void @_ZN6icu_757UMemorydaEPv(ptr noundef nonnull %9) #11
  br label %delete.end

delete.end:                                       ; preds = %delete.notnull, %if.end22
  store ptr %call11, ptr %elements23, align 8
  store i32 %newCapacity.0, ptr %elementsCapacity, align 8
  %.pre17 = load i32, ptr %elementsLength, align 4
  br label %if.end26

if.end26:                                         ; preds = %if.end3.if.end26_crit_edge, %delete.end
  %10 = phi i32 [ %2, %if.end3.if.end26_crit_edge ], [ %.pre17, %delete.end ]
  %11 = phi ptr [ %.pre, %if.end3.if.end26_crit_edge ], [ %call11, %delete.end ]
  %inc = add nsw i32 %10, 1
  store i32 %inc, ptr %elementsLength, align 4
  %idxprom = sext i32 %10 to i64
  %arrayidx = getelementptr inbounds %"class.icu_75::UCharsTrieElement", ptr %11, i64 %idxprom
  %strings = getelementptr inbounds i8, ptr %this, i64 16
  %12 = load i32, ptr %errorCode, align 4
  %cmp.i.i = icmp slt i32 %12, 1
  br i1 %cmp.i.i, label %if.end.i, label %return

if.end.i:                                         ; preds = %if.end26
  %fUnion.i.i.i = getelementptr inbounds i8, ptr %s, i64 8
  %13 = load i16, ptr %fUnion.i.i.i, align 8
  %cmp.i.i.i = icmp slt i16 %13, 0
  %14 = ashr i16 %13, 5
  %shr.i.i.i = sext i16 %14 to i32
  %fLength.i.i = getelementptr inbounds i8, ptr %s, i64 12
  %15 = load i32, ptr %fLength.i.i, align 4
  %cond.i.i = select i1 %cmp.i.i.i, i32 %15, i32 %shr.i.i.i
  %cmp.i12 = icmp sgt i32 %cond.i.i, 65535
  br i1 %cmp.i12, label %return.sink.split, label %_ZN6icu_7517UCharsTrieElement5setToERKNS_13UnicodeStringEiRS1_R10UErrorCode.exit

_ZN6icu_7517UCharsTrieElement5setToERKNS_13UnicodeStringEiRS1_R10UErrorCode.exit: ; preds = %if.end.i
  %fUnion.i.i6.i = getelementptr inbounds i8, ptr %this, i64 24
  %16 = load i16, ptr %fUnion.i.i6.i, align 8
  %cmp.i.i7.i = icmp slt i16 %16, 0
  %17 = ashr i16 %16, 5
  %shr.i.i8.i = sext i16 %17 to i32
  %fLength.i9.i = getelementptr inbounds i8, ptr %this, i64 28
  %18 = load i32, ptr %fLength.i9.i, align 4
  %cond.i10.i = select i1 %cmp.i.i7.i, i32 %18, i32 %shr.i.i8.i
  store i32 %cond.i10.i, ptr %arrayidx, align 4
  %conv.i13 = trunc i32 %cond.i.i to i16
  call void @llvm.lifetime.start.p0(i64 2, ptr nonnull %srcChar.addr.i.i)
  store i16 %conv.i13, ptr %srcChar.addr.i.i, align 2
  %call.i.i = call noundef nonnull align 8 dereferenceable(64) ptr @_ZN6icu_7513UnicodeString8doAppendEPKDsii(ptr noundef nonnull align 8 dereferenceable(64) %strings, ptr noundef nonnull %srcChar.addr.i.i, i32 noundef 0, i32 noundef 1)
  call void @llvm.lifetime.end.p0(i64 2, ptr nonnull %srcChar.addr.i.i)
  %value.i = getelementptr inbounds i8, ptr %arrayidx, i64 4
  store i32 %value, ptr %value.i, align 4
  %19 = load i16, ptr %fUnion.i.i.i, align 8
  %cmp.i.i.i.i = icmp slt i16 %19, 0
  %20 = ashr i16 %19, 5
  %shr.i.i.i.i = sext i16 %20 to i32
  %21 = load i32, ptr %fLength.i.i, align 4
  %cond.i.i.i = select i1 %cmp.i.i.i.i, i32 %21, i32 %shr.i.i.i.i
  %call2.i.i = call noundef nonnull align 8 dereferenceable(64) ptr @_ZN6icu_7513UnicodeString8doAppendERKS0_ii(ptr noundef nonnull align 8 dereferenceable(64) %strings, ptr noundef nonnull align 8 dereferenceable(64) %s, i32 noundef 0, i32 noundef %cond.i.i.i)
  %.pre18 = load i32, ptr %errorCode, align 4
  %22 = icmp sgt i32 %.pre18, 0
  br i1 %22, label %return, label %land.lhs.true

land.lhs.true:                                    ; preds = %_ZN6icu_7517UCharsTrieElement5setToERKNS_13UnicodeStringEiRS1_R10UErrorCode.exit
  %fUnion.i = getelementptr inbounds i8, ptr %this, i64 24
  %23 = load i16, ptr %fUnion.i, align 8
  %conv2.i16 = and i16 %23, 1
  %tobool33.not = icmp eq i16 %conv2.i16, 0
  br i1 %tobool33.not, label %return, label %return.sink.split

return.sink.split:                                ; preds = %land.lhs.true, %if.end.i, %if.then5, %if.end
  %.sink = phi i32 [ 30, %if.end ], [ 7, %if.then5 ], [ 8, %if.end.i ], [ 7, %land.lhs.true ]
  store i32 %.sink, ptr %errorCode, align 4
  br label %return

return:                                           ; preds = %return.sink.split, %if.end26, %_ZN6icu_7517UCharsTrieElement5setToERKNS_13UnicodeStringEiRS1_R10UErrorCode.exit, %land.lhs.true, %entry
  ret ptr %this
}